target datalayout = "e-m:e-p270:32:32-p271:32:32-p272:64:64-i64:64-i128:128-f80:128-n8:16:32:64-S128"
target triple = "x86_64-pc-linux-gnu"

%struct.sockaddr = type { i16, [14 x i8] }
%struct.sockaddr_ll = type { i16, i16, i32, i16, i8, i8, [8 x i8] }

; Function Attrs: nounwind sspstrong uwtable
define internal i32 @sockaddr_len(ptr noundef %0) #0 {
  %2 = alloca i32, align 4
  %3 = alloca ptr, align 8
  store ptr %0, ptr %3, align 8, !tbaa !15
  %4 = load ptr, ptr %3, align 8, !tbaa !15
  %5 = icmp eq ptr %4, null
  br i1 %5, label %6, label %7

6:                                                ; preds = %1
  store i32 0, ptr %2, align 4
  br label %23

7:                                                ; preds = %1
  %8 = load ptr, ptr %3, align 8, !tbaa !15
  %9 = getelementptr inbounds nuw %struct.sockaddr, ptr %8, i32 0, i32 0
  %10 = load i16, ptr %9, align 2, !tbaa !46
  %11 = zext i16 %10 to i32
  switch i32 %11, label %22 [
    i32 2, label %12
    i32 10, label %13
    i32 1, label %14
    i32 17, label %15
  ]

12:                                               ; preds = %7
  store i32 16, ptr %2, align 4
  br label %23

13:                                               ; preds = %7
  store i32 28, ptr %2, align 4
  br label %23

14:                                               ; preds = %7
  store i32 110, ptr %2, align 4
  br label %23

15:                                               ; preds = %7
  %16 = load ptr, ptr %3, align 8, !tbaa !15
  %17 = getelementptr inbounds nuw %struct.sockaddr_ll, ptr %16, i32 0, i32 5
  %18 = load i8, ptr %17, align 1, !tbaa !49
  %19 = zext i8 %18 to i64
  %20 = add i64 12, %19
  %21 = trunc i64 %20 to i32
  store i32 %21, ptr %2, align 4
  br label %23

22:                                               ; preds = %7
  store i32 2, ptr %2, align 4
  br label %23

23:                                               ; preds = %22, %15, %14, %13, %12, %6
  %24 = load i32, ptr %2, align 4
  ret i32 %24
}

; Function Attrs: nounwind sspstrong uwtable
define internal i64 @sockaddr_obj(ptr noundef %0, i32 noundef %1) #0 {
  %3 = alloca i64, align 8
  %4 = alloca ptr, align 8
  %5 = alloca i32, align 4
  store ptr %0, ptr %4, align 8, !tbaa !15
  store i32 %1, ptr %5, align 4, !tbaa !13
  %6 = load ptr, ptr %4, align 8, !tbaa !15
  %7 = icmp eq ptr %6, null
  br i1 %7, label %8, label %9

8:                                                ; preds = %2
  store i64 4, ptr %3, align 8
  br label %19

9:                                                ; preds = %2
  %10 = load ptr, ptr %4, align 8, !tbaa !15
  %11 = call i32 @sockaddr_len(ptr noundef %10)
  store i32 %11, ptr %5, align 4, !tbaa !13
  %12 = load ptr, ptr %4, align 8, !tbaa !15
  %13 = load i32, ptr %5, align 4, !tbaa !13
  %14 = load ptr, ptr %4, align 8, !tbaa !15
  %15 = getelementptr inbounds nuw %struct.sockaddr, ptr %14, i32 0, i32 0
  %16 = load i16, ptr %15, align 2, !tbaa !46
  %17 = zext i16 %16 to i32
  %18 = call i64 @rsock_addrinfo_new(ptr noundef %12, i32 noundef %13, i32 noundef %17, i32 noundef 0, i32 noundef 0, i64 noundef 4, i64 noundef 4)
  store i64 %18, ptr %3, align 8
  br label %19

19:                                               ; preds = %9, %8
  %20 = load i64, ptr %3, align 8
  ret i64 %20
}

; Function Attrs: nounwind sspstrong uwtable
define i64 @rsock_sockaddr_obj(ptr noundef %0, i32 noundef %1) #0 {
  %3 = alloca ptr, align 8
  %4 = alloca i32, align 4
  store ptr %0, ptr %3, align 8, !tbaa !15
  store i32 %1, ptr %4, align 4, !tbaa !13
  %5 = load ptr, ptr %3, align 8, !tbaa !15
  %6 = load i32, ptr %4, align 4, !tbaa !13
  %7 = call i64 @sockaddr_obj(ptr noundef %5, i32 noundef %6)
  ret i64 %7
}