; Function Attrs: nounwind sspstrong uwtable
define i64 @rsock_sockaddr_obj(ptr noundef %0, i32 noundef %1) local_unnamed_addr #0 {
  %3 = icmp eq ptr %0, null
  br i1 %3, label %sockaddr_obj.exit, label %4

4:                                                ; preds = %2
  %5 = load i16, ptr %0, align 2, !tbaa !35
  switch i16 %5, label %13 [
    i16 2, label %sockaddr_len.exit.i
    i16 10, label %6
    i16 1, label %7
    i16 17, label %8
  ]

6:                                                ; preds = %4
  br label %sockaddr_len.exit.i

7:                                                ; preds = %4
  br label %sockaddr_len.exit.i

8:                                                ; preds = %4
  %9 = getelementptr inbounds nuw i8, ptr %0, i64 11
  %10 = load i8, ptr %9, align 1, !tbaa !38
  %11 = zext i8 %10 to i32
  %12 = add nuw nsw i32 %11, 12
  br label %sockaddr_len.exit.i

13:                                               ; preds = %4
  br label %sockaddr_len.exit.i

sockaddr_len.exit.i:                              ; preds = %13, %8, %7, %6, %4
  %.0.i.i = phi i32 [ 2, %13 ], [ %12, %8 ], [ 110, %7 ], [ 28, %6 ], [ 16, %4 ]
  %14 = zext i16 %5 to i32
  %15 = tail call i64 @rsock_addrinfo_new(ptr noundef nonnull %0, i32 noundef %.0.i.i, i32 noundef %14, i32 noundef 0, i32 noundef 0, i64 noundef 4, i64 noundef 4) #16
  br label %sockaddr_obj.exit

sockaddr_obj.exit:                                ; preds = %2, %sockaddr_len.exit.i
  %.0.i = phi i64 [ %15, %sockaddr_len.exit.i ], [ 4, %2 ]
  ret i64 %.0.i
}